target datalayout = "e-m:e-p270:32:32-p271:32:32-p272:64:64-i64:64-i128:128-f80:128-n8:16:32:64-S128"
target triple = "x86_64-pc-linux-gnu"

%"struct.std::_Rb_tree_header" = type { %"struct.std::_Rb_tree_node_base", i64 }
%"struct.std::_Rb_tree_node_base" = type { i32, ptr, ptr, ptr }
%"class.std::__cxx11::basic_string" = type { %"struct.std::__cxx11::basic_string<char>::_Alloc_hider", i64, %union.anon }
%"struct.std::__cxx11::basic_string<char>::_Alloc_hider" = type { ptr }
%union.anon = type { i64, [8 x i8] }
%"class.V3Sched::VirtIfaceTriggers" = type { %"class.std::vector" }
%"class.std::vector" = type { %"struct.std::_Vector_base" }
%"struct.std::_Vector_base" = type { %"struct.std::_Vector_base<std::pair<const AstIface *, AstVarScope *>, std::allocator<std::pair<const AstIface *, AstVarScope *>>>::_Vector_impl" }
%"struct.std::_Vector_base<std::pair<const AstIface *, AstVarScope *>, std::allocator<std::pair<const AstIface *, AstVarScope *>>>::_Vector_impl" = type { %"struct.std::_Vector_base<std::pair<const AstIface *, AstVarScope *>, std::allocator<std::pair<const AstIface *, AstVarScope *>>>::_Vector_impl_data" }
%"struct.std::_Vector_base<std::pair<const AstIface *, AstVarScope *>, std::allocator<std::pair<const AstIface *, AstVarScope *>>>::_Vector_impl_data" = type { ptr, ptr, ptr }
%"class.V3Sched::(anonymous namespace)::VirtIfaceVisitor" = type { %class.VNVisitor, [8 x i8], ptr, ptr, ptr, %class.V3UniqueNames, %"class.V3Sched::VirtIfaceTriggers" }
%class.VNVisitor = type { %class.VNVisitorConst, %class.VNDeleter }
%class.VNVisitorConst = type { ptr }
%class.VNDeleter = type { %"class.std::vector.50" }
%"class.std::vector.50" = type { %"struct.std::_Vector_base.51" }
%"struct.std::_Vector_base.51" = type { %"struct.std::_Vector_base<AstNode *, std::allocator<AstNode *>>::_Vector_impl" }
%"struct.std::_Vector_base<AstNode *, std::allocator<AstNode *>>::_Vector_impl" = type { %"struct.std::_Vector_base<AstNode *, std::allocator<AstNode *>>::_Vector_impl_data" }
%"struct.std::_Vector_base<AstNode *, std::allocator<AstNode *>>::_Vector_impl_data" = type { ptr, ptr, ptr }
%class.V3UniqueNames = type <{ %"class.std::__cxx11::basic_string", %"class.std::map.55", i8, [7 x i8] }>
%"class.std::map.55" = type { %"class.std::_Rb_tree.56" }
%"class.std::_Rb_tree.56" = type { %"struct.std::_Rb_tree<std::__cxx11::basic_string<char>, std::pair<const std::__cxx11::basic_string<char>, unsigned int>, std::_Select1st<std::pair<const std::__cxx11::basic_string<char>, unsigned int>>, std::less<std::__cxx11::basic_string<char>>>::_Rb_tree_impl" }
%"struct.std::_Rb_tree<std::__cxx11::basic_string<char>, std::pair<const std::__cxx11::basic_string<char>, unsigned int>, std::_Select1st<std::pair<const std::__cxx11::basic_string<char>, unsigned int>>, std::less<std::__cxx11::basic_string<char>>>::_Rb_tree_impl" = type { [8 x i8], %"struct.std::_Rb_tree_header" }
%class.VRestorer = type { ptr, ptr }
%class.VRestorer.66 = type { ptr, ptr }

; Function Attrs: mustprogress nounwind uwtable
define linkonce_odr dso_local void @_ZN9VRestorerIP9AstAssignED2Ev(ptr noundef nonnull align 8 dereferenceable(16) %0) unnamed_addr #8 comdat align 2 {
  %2 = alloca ptr, align 8
  store ptr %0, ptr %2, align 8, !tbaa !392
  %3 = load ptr, ptr %2, align 8
  %4 = getelementptr inbounds nuw %class.VRestorer, ptr %3, i32 0, i32 1
  %5 = load ptr, ptr %4, align 8, !tbaa !396
  %6 = getelementptr inbounds nuw %class.VRestorer, ptr %3, i32 0, i32 0
  %7 = load ptr, ptr %6, align 8, !tbaa !406
  store ptr %5, ptr %7, align 8, !tbaa !300
  ret void
}

; Function Attrs: mustprogress nounwind uwtable
define linkonce_odr dso_local void @_ZN9VRestorerIP8AstIfaceED2Ev(ptr noundef nonnull align 8 dereferenceable(16) %0) unnamed_addr #8 comdat align 2 {
  %2 = alloca ptr, align 8
  store ptr %0, ptr %2, align 8, !tbaa !398
  %3 = load ptr, ptr %2, align 8
  %4 = getelementptr inbounds nuw %class.VRestorer.66, ptr %3, i32 0, i32 1
  %5 = load ptr, ptr %4, align 8, !tbaa !403
  %6 = getelementptr inbounds nuw %class.VRestorer.66, ptr %3, i32 0, i32 0
  %7 = load ptr, ptr %6, align 8, !tbaa !405
  store ptr %5, ptr %7, align 8, !tbaa !402
  ret void
}

; Function Attrs: inlinehint mustprogress uwtable
define linkonce_odr dso_local void @_ZN9VNVisitor15iterateChildrenEP7AstNode(ptr noundef nonnull align 8 dereferenceable(32) %0, ptr noundef %1) #6 comdat align 2 {
  %3 = alloca ptr, align 8
  %4 = alloca ptr, align 8
  store ptr %0, ptr %3, align 8, !tbaa !120
  store ptr %1, ptr %4, align 8, !tbaa !128
  %5 = load ptr, ptr %3, align 8
  %6 = load ptr, ptr %4, align 8, !tbaa !128
  call void @_ZN7AstNode15iterateChildrenER9VNVisitor(ptr noundef nonnull align 8 dereferenceable(152) %6, ptr noundef nonnull align 8 dereferenceable(32) %5)
  ret void
}

; Function Attrs: mustprogress nounwind uwtable
define linkonce_odr dso_local void @_ZN9VRestorerIP8AstIfaceEC2ERS1_(ptr noundef nonnull align 8 dereferenceable(16) %0, ptr noundef nonnull align 8 dereferenceable(8) %1) unnamed_addr #8 comdat align 2 {
  %3 = alloca ptr, align 8
  %4 = alloca ptr, align 8
  store ptr %0, ptr %3, align 8, !tbaa !398
  store ptr %1, ptr %4, align 8, !tbaa !400
  %5 = load ptr, ptr %3, align 8
  %6 = getelementptr inbounds nuw %class.VRestorer.66, ptr %5, i32 0, i32 0
  %7 = load ptr, ptr %4, align 8, !tbaa !400
  store ptr %7, ptr %6, align 8, !tbaa !400
  %8 = getelementptr inbounds nuw %class.VRestorer.66, ptr %5, i32 0, i32 1
  %9 = load ptr, ptr %4, align 8, !tbaa !400
  %10 = load ptr, ptr %9, align 8, !tbaa !402
  store ptr %10, ptr %8, align 8, !tbaa !403
  ret void
}

; Function Attrs: mustprogress nounwind uwtable
define linkonce_odr dso_local void @_ZN9VRestorerIP9AstAssignEC2ERS1_(ptr noundef nonnull align 8 dereferenceable(16) %0, ptr noundef nonnull align 8 dereferenceable(8) %1) unnamed_addr #8 comdat align 2 {
  %3 = alloca ptr, align 8
  %4 = alloca ptr, align 8
  store ptr %0, ptr %3, align 8, !tbaa !392
  store ptr %1, ptr %4, align 8, !tbaa !394
  %5 = load ptr, ptr %3, align 8
  %6 = getelementptr inbounds nuw %class.VRestorer, ptr %5, i32 0, i32 0
  %7 = load ptr, ptr %4, align 8, !tbaa !394
  store ptr %7, ptr %6, align 8, !tbaa !394
  %8 = getelementptr inbounds nuw %class.VRestorer, ptr %5, i32 0, i32 1
  %9 = load ptr, ptr %4, align 8, !tbaa !394
  %10 = load ptr, ptr %9, align 8, !tbaa !300
  store ptr %10, ptr %8, align 8, !tbaa !396
  ret void
}

; Function Attrs: mustprogress uwtable
define internal void @_ZN7V3Sched12_GLOBAL__N_116VirtIfaceVisitor5visitEP8AstCFunc(ptr noundef nonnull align 8 dereferenceable(176) %0, ptr noundef %1) unnamed_addr #4 align 2 personality ptr @__gxx_personality_v0 {
  %3 = alloca ptr, align 8
  %4 = alloca ptr, align 8
  %5 = alloca %class.VRestorer, align 8
  %6 = alloca %class.VRestorer.66, align 8
  %7 = alloca ptr, align 8
  %8 = alloca i32, align 4
  store ptr %0, ptr %3, align 8, !tbaa !82
  store ptr %1, ptr %4, align 8, !tbaa !138
  %9 = load ptr, ptr %3, align 8
  call void @llvm.lifetime.start.p0(i64 16, ptr %5) #3
  %10 = getelementptr inbounds nuw %"class.V3Sched::(anonymous namespace)::VirtIfaceVisitor", ptr %9, i32 0, i32 3
  call void @_ZN9VRestorerIP9AstAssignEC2ERS1_(ptr noundef nonnull align 8 dereferenceable(16) %5, ptr noundef nonnull align 8 dereferenceable(8) %10)
  %11 = getelementptr inbounds nuw %"class.V3Sched::(anonymous namespace)::VirtIfaceVisitor", ptr %9, i32 0, i32 3
  store ptr null, ptr %11, align 8, !tbaa !107
  call void @llvm.lifetime.start.p0(i64 16, ptr %6) #3
  %12 = getelementptr inbounds nuw %"class.V3Sched::(anonymous namespace)::VirtIfaceVisitor", ptr %9, i32 0, i32 4
  invoke void @_ZN9VRestorerIP8AstIfaceEC2ERS1_(ptr noundef nonnull align 8 dereferenceable(16) %6, ptr noundef nonnull align 8 dereferenceable(8) %12)
          to label %13 unwind label %17

13:                                               ; preds = %2
  %14 = getelementptr inbounds nuw %"class.V3Sched::(anonymous namespace)::VirtIfaceVisitor", ptr %9, i32 0, i32 4
  store ptr null, ptr %14, align 8, !tbaa !108
  %15 = load ptr, ptr %4, align 8, !tbaa !138
  invoke void @_ZN9VNVisitor15iterateChildrenEP7AstNode(ptr noundef nonnull align 8 dereferenceable(32) %9, ptr noundef %15)
          to label %16 unwind label %21

16:                                               ; preds = %13
  call void @_ZN9VRestorerIP8AstIfaceED2Ev(ptr noundef nonnull align 8 dereferenceable(16) %6) #3
  call void @llvm.lifetime.end.p0(i64 16, ptr %6) #3
  call void @_ZN9VRestorerIP9AstAssignED2Ev(ptr noundef nonnull align 8 dereferenceable(16) %5) #3
  call void @llvm.lifetime.end.p0(i64 16, ptr %5) #3
  ret void

17:                                               ; preds = %2
  %18 = landingpad { ptr, i32 }
          cleanup
  %19 = extractvalue { ptr, i32 } %18, 0
  store ptr %19, ptr %7, align 8
  %20 = extractvalue { ptr, i32 } %18, 1
  store i32 %20, ptr %8, align 4
  br label %25

21:                                               ; preds = %13
  %22 = landingpad { ptr, i32 }
          cleanup
  %23 = extractvalue { ptr, i32 } %22, 0
  store ptr %23, ptr %7, align 8
  %24 = extractvalue { ptr, i32 } %22, 1
  store i32 %24, ptr %8, align 4
  call void @_ZN9VRestorerIP8AstIfaceED2Ev(ptr noundef nonnull align 8 dereferenceable(16) %6) #3
  br label %25

25:                                               ; preds = %21, %17
  call void @llvm.lifetime.end.p0(i64 16, ptr %6) #3
  call void @_ZN9VRestorerIP9AstAssignED2Ev(ptr noundef nonnull align 8 dereferenceable(16) %5) #3
  call void @llvm.lifetime.end.p0(i64 16, ptr %5) #3
  br label %26

26:                                               ; preds = %25
  %27 = load ptr, ptr %7, align 8
  %28 = load i32, ptr %8, align 4
  %29 = insertvalue { ptr, i32 } poison, ptr %27, 0
  %30 = insertvalue { ptr, i32 } %29, i32 %28, 1
  resume { ptr, i32 } %30
}